target datalayout = "e-m:e-p270:32:32-p271:32:32-p272:64:64-i64:64-i128:128-f80:128-n8:16:32:64-S128"
target triple = "x86_64-pc-linux-gnu"

%struct.pmix_envar_t = type { ptr, ptr, i8 }

; Function Attrs: nounwind uwtable
define i32 @pmix_bfrops_base_copy_envar(ptr noundef %0, ptr noundef %1, i16 noundef zeroext %2) #0 {
  %4 = alloca i32, align 4
  %5 = alloca ptr, align 8
  %6 = alloca ptr, align 8
  %7 = alloca i16, align 2
  store ptr %0, ptr %5, align 8, !tbaa !8
  store ptr %1, ptr %6, align 8, !tbaa !8
  store i16 %2, ptr %7, align 2, !tbaa !9
  %8 = call ptr @PMIx_Envar_create(i64 noundef 1)
  %9 = load ptr, ptr %5, align 8, !tbaa !8
  store ptr %8, ptr %9, align 8, !tbaa !8
  %10 = load ptr, ptr %5, align 8, !tbaa !8
  %11 = load ptr, ptr %10, align 8, !tbaa !8
  %12 = icmp eq ptr null, %11
  br i1 %12, label %13, label %14

13:                                               ; preds = %3
  store i32 -32, ptr %4, align 4
  br label %47

14:                                               ; preds = %3
  %15 = load ptr, ptr %6, align 8, !tbaa !8
  %16 = getelementptr inbounds nuw %struct.pmix_envar_t, ptr %15, i32 0, i32 0
  %17 = load ptr, ptr %16, align 8, !tbaa !145
  %18 = icmp ne ptr null, %17
  br i1 %18, label %19, label %27

19:                                               ; preds = %14
  %20 = load ptr, ptr %6, align 8, !tbaa !8
  %21 = getelementptr inbounds nuw %struct.pmix_envar_t, ptr %20, i32 0, i32 0
  %22 = load ptr, ptr %21, align 8, !tbaa !145
  %23 = call noalias ptr @strdup(ptr noundef %22) #11
  %24 = load ptr, ptr %5, align 8, !tbaa !8
  %25 = load ptr, ptr %24, align 8, !tbaa !8
  %26 = getelementptr inbounds nuw %struct.pmix_envar_t, ptr %25, i32 0, i32 0
  store ptr %23, ptr %26, align 8, !tbaa !145
  br label %27

27:                                               ; preds = %19, %14
  %28 = load ptr, ptr %6, align 8, !tbaa !8
  %29 = getelementptr inbounds nuw %struct.pmix_envar_t, ptr %28, i32 0, i32 1
  %30 = load ptr, ptr %29, align 8, !tbaa !147
  %31 = icmp ne ptr null, %30
  br i1 %31, label %32, label %40

32:                                               ; preds = %27
  %33 = load ptr, ptr %6, align 8, !tbaa !8
  %34 = getelementptr inbounds nuw %struct.pmix_envar_t, ptr %33, i32 0, i32 1
  %35 = load ptr, ptr %34, align 8, !tbaa !147
  %36 = call noalias ptr @strdup(ptr noundef %35) #11
  %37 = load ptr, ptr %5, align 8, !tbaa !8
  %38 = load ptr, ptr %37, align 8, !tbaa !8
  %39 = getelementptr inbounds nuw %struct.pmix_envar_t, ptr %38, i32 0, i32 1
  store ptr %36, ptr %39, align 8, !tbaa !147
  br label %40

40:                                               ; preds = %32, %27
  %41 = load ptr, ptr %6, align 8, !tbaa !8
  %42 = getelementptr inbounds nuw %struct.pmix_envar_t, ptr %41, i32 0, i32 2
  %43 = load i8, ptr %42, align 8, !tbaa !148
  %44 = load ptr, ptr %5, align 8, !tbaa !8
  %45 = load ptr, ptr %44, align 8, !tbaa !8
  %46 = getelementptr inbounds nuw %struct.pmix_envar_t, ptr %45, i32 0, i32 2
  store i8 %43, ptr %46, align 8, !tbaa !148
  store i32 0, ptr %4, align 4
  br label %47

47:                                               ; preds = %40, %13
  %48 = load i32, ptr %4, align 4
  ret i32 %48
}