; Function Attrs: nounwind uwtable
define range(i32 -32, 1) i32 @pmix_bfrops_base_copy_envar(ptr noundef captures(none) initializes((0, 8)) %0, ptr noundef readonly captures(none) %1, i16 noundef zeroext %2) local_unnamed_addr #0 {
  %4 = tail call ptr @PMIx_Envar_create(i64 noundef 1) #23
  store ptr %4, ptr %0, align 8, !tbaa !15
  %5 = icmp eq ptr %4, null
  br i1 %5, label %21, label %6

6:                                                ; preds = %3
  %7 = load ptr, ptr %1, align 8, !tbaa !120
  %.not = icmp eq ptr %7, null
  br i1 %.not, label %10, label %8

8:                                                ; preds = %6
  %9 = tail call noalias ptr @strdup(ptr noundef nonnull %7) #23
  store ptr %9, ptr %4, align 8, !tbaa !120
  %.pre13.pre = load ptr, ptr %0, align 8, !tbaa !15
  br label %10

10:                                               ; preds = %8, %6
  %.pre13 = phi ptr [ %.pre13.pre, %8 ], [ %4, %6 ]
  %11 = getelementptr inbounds nuw i8, ptr %1, i64 8
  %12 = load ptr, ptr %11, align 8, !tbaa !122
  %.not12 = icmp eq ptr %12, null
  br i1 %.not12, label %16, label %13

13:                                               ; preds = %10
  %14 = tail call noalias ptr @strdup(ptr noundef nonnull %12) #23
  %15 = getelementptr inbounds nuw i8, ptr %.pre13, i64 8
  store ptr %14, ptr %15, align 8, !tbaa !122
  %.pre = load ptr, ptr %0, align 8, !tbaa !15
  br label %16

16:                                               ; preds = %13, %10
  %17 = phi ptr [ %.pre, %13 ], [ %.pre13, %10 ]
  %18 = getelementptr inbounds nuw i8, ptr %1, i64 16
  %19 = load i8, ptr %18, align 8, !tbaa !123
  %20 = getelementptr inbounds nuw i8, ptr %17, i64 16
  store i8 %19, ptr %20, align 8, !tbaa !123
  br label %21

21:                                               ; preds = %3, %16
  %.0 = phi i32 [ 0, %16 ], [ -32, %3 ]
  ret i32 %.0
}